(dp0
S'start_value'
p1
F99999.0
sS'next_id'
p2
I5
sS'stocks'
p3
(lp4
(iportfolio
Stock
p5
(dp6
S'data'
p7
(dp8
S'price_target'
p9
NsS'total_gain'
p10
cnumpy.core.multiarray
scalar
p11
(cnumpy
dtype
p12
(S'f8'
p13
I0
I1
tp14
Rp15
(I3
S'<'
p16
NNNI-1
I-1
I0
tp17
bS'x\xa4\xdf\x07\xb4\x9c\xd4\xbf'
p18
tp19
Rp20
sS'stop_loss'
p21
I101
sS'stop_loss_set_date'
p22
cdatetime
date
p23
(S'\x07\xe1\x0c\x0b'
p24
tp25
Rp26
sS'sell_date'
p27
NsS'buy_price'
p28
g11
(g15
S'v6\xe4\x9f\x99Ig@'
p29
tp30
Rp31
sS'sell_price'
p32
NsS'is_sold'
p33
I00
sS'buy_date'
p34
g23
(S'\x07\xe1\x0c\x0b'
p35
tp36
Rp37
sS'cur_value'
p38
g11
(g15
S'\x1e5&\xc4\xcc\xea\x9f@'
p39
tp40
Rp41
sS'shares'
p42
I11
sg1
g11
(g15
S'q\xe5\xec\x9d\x99\x02\xa0@'
p43
tp44
Rp45
sS'cur_price'
p46
g11
(g15
S'\x8a\xc9\x1b`f6g@'
p47
tp48
Rp49
sS'ticker'
p50
S'LRCX'
p51
sS'id'
p52
I1
ssba(iportfolio
Stock
p53
(dp54
g7
(dp55
g9
Nsg10
g11
(g15
S'\x80\xa8\x7fb\x86G\xa3?'
p56
tp57
Rp58
sg21
Nsg27
g23
(S'\x07\xe1\x0c\x0b'
p59
tp60
Rp61
sg28
g11
(g15
S'\xcc\x9d\x99`\xb8\x92e@'
p62
tp63
Rp64
sg32
g11
(g15
S'\x14\x937\xc0\xcc\x94e@'
p65
tp66
Rp67
sg33
I01
sg34
g23
(S'\x07\xe1\x0c\x0b'
p68
tp69
Rp70
sg38
g11
(g15
S'<jL\x88\x99\xac\xad@'
p71
tp72
Rp73
sg42
I22
sg1
g11
(g15
S'\xf88\xd3\x84\xbd\xa9\xad@'
p74
tp75
Rp76
sg46
g67
sg50
S'AAPL'
p77
sg52
I2
ssba(iportfolio
Stock
p78
(dp79
g7
(dp80
g9
Nsg10
g11
(g15
S'\x00\x00\x00\x00\x00\x00\x00\x00'
p81
tp82
Rp83
sg21
Nsg27
Nsg28
g11
(g15
S'\x00\x00\x00\x00\x00I\xd1@'
p84
tp85
Rp86
sg32
Nsg33
I00
sg34
g23
(S'\x07\xe1\x0c\x0b'
p87
tp88
Rp89
sg38
g11
(g15
S'\x00\x00\x00\x00\x00I\xd1@'
p90
tp91
Rp92
sg42
I1
sg1
g11
(g15
S'\x00\x00\x00\x00\x00I\xd1@'
p93
tp94
Rp95
sg46
g11
(g15
S'\x00\x00\x00\x00\x00I\xd1@'
p96
tp97
Rp98
sg50
S'LHG'
p99
sg52
I3
ssba(iportfolio
Stock
p100
(dp101
g7
(dp102
S'price_target'
p103
NsS'total_gain'
p104
F0.0
sS'stop_loss'
p105
Nsg22
NsS'shares'
p106
I11
sS'cur_value'
p107
g11
(g15
S'\xf4\x1f\xd2o_\x87\t@'
p108
tp109
Rp110
sS'sell_price'
p111
NsS'is_sold'
p112
I00
sS'buy_date'
p113
g23
(S'\x07\xe1\x0c\x0b'
p114
tp115
Rp116
sS'sell_date'
p117
NsS'price_target_set_date'
p118
NsS'start_value'
p119
g11
(g15
S'\xf4\x1f\xd2o_\x87\t@'
p120
tp121
Rp122
sS'cur_price'
p123
g11
(g15
S'Tt$\x97\xff\x90\xd2?'
p124
tp125
Rp126
sS'buy_price'
p127
g126
sS'ticker'
p128
S'BTSC'
p129
sS'id'
p130
I4
ssbasg38
g11
(g15
S'3\xfb<F\x9di\xf8@'
p131
tp132
Rp133
sS'cash'
p134
g11
(g15
S'\xba\x82m\x04\x7f\x97\xf3@'
p135
tp136
Rp137
s.