(dp0
S'start_value'
p1
F99999.0
sS'next_id'
p2
I4
sS'stocks'
p3
(lp4
(iportfolio
Stock
p5
(dp6
S'data'
p7
(dp8
S'price_target'
p9
NsS'total_gain'
p10
cnumpy.core.multiarray
scalar
p11
(cnumpy
dtype
p12
(S'f8'
p13
I0
I1
tp14
Rp15
(I3
S'<'
p16
NNNI-1
I-1
I0
tp17
bS'P\x9b\xac8\xb1{\xcb\xbf'
p18
tp19
Rp20
sS'stop_loss'
p21
NsS'sell_date'
p22
NsS'buy_price'
p23
g11
(g15
S'v6\xe4\x9f\x99Ig@'
p24
tp25
Rp26
sS'sell_price'
p27
NsS'is_sold'
p28
I00
sS'buy_date'
p29
cdatetime
date
p30
(S'\x07\xe1\x0c\x0b'
p31
tp32
Rp33
sS'shares'
p34
I11
sS'cur_price'
p35
g11
(g15
S'\x14\x937\xc0\xcc<g@'
p36
tp37
Rp38
sS'id'
p39
I1
sg1
g11
(g15
S'q\xe5\xec\x9d\x99\x02\xa0@'
p40
tp41
Rp42
sS'ticker'
p43
S'LRCX'
p44
sS'cur_value'
p45
g11
(g15
S'<jL\x88\x99\xf3\x9f@'
p46
tp47
Rp48
ssba(iportfolio
Stock
p49
(dp50
g7
(dp51
g9
Nsg10
g11
(g15
S'\x80\xa8\x7fb\x86G\xa3?'
p52
tp53
Rp54
sg21
Nsg22
g30
(S'\x07\xe1\x0c\x0b'
p55
tp56
Rp57
sg23
g11
(g15
S'\xcc\x9d\x99`\xb8\x92e@'
p58
tp59
Rp60
sg27
g11
(g15
S'\x14\x937\xc0\xcc\x94e@'
p61
tp62
Rp63
sg28
I01
sg29
g30
(S'\x07\xe1\x0c\x0b'
p64
tp65
Rp66
sg34
I22
sg35
g63
sg39
I2
sg1
g11
(g15
S'\xf88\xd3\x84\xbd\xa9\xad@'
p67
tp68
Rp69
sg43
S'AAPL'
p70
sg45
g11
(g15
S'<jL\x88\x99\xac\xad@'
p71
tp72
Rp73
ssba(iportfolio
Stock
p74
(dp75
g7
(dp76
g9
Nsg10
g11
(g15
S'\x00\x00\x00\x00\x00\x00\x00\x00'
p77
tp78
Rp79
sg21
Nsg22
Nsg23
g11
(g15
S'\x00\x00\x00\x00\x00I\xd1@'
p80
tp81
Rp82
sg27
Nsg28
I00
sg29
g30
(S'\x07\xe1\x0c\x0b'
p83
tp84
Rp85
sg34
I1
sg35
g11
(g15
S'\x00\x00\x00\x00\x00I\xd1@'
p86
tp87
Rp88
sg39
I3
sg1
g11
(g15
S'\x00\x00\x00\x00\x00I\xd1@'
p89
tp90
Rp91
sg43
S'LHG'
p92
sg45
g11
(g15
S'\x00\x00\x00\x00\x00I\xd1@'
p93
tp94
Rp95
ssbasg45
g11
(g15
S'\x9b3\xa2\xf4\xbci\xf8@'
p96
tp97
Rp98
sS'cash'
p99
g11
(g15
S'^b,\x13\xb2\x97\xf3@'
p100
tp101
Rp102
s.