(dp0
S'start_value'
p1
F100000.0
sS'next_id'
p2
I5
sS'stocks'
p3
(lp4
(iportfolio
Stock
p5
(dp6
S'data'
p7
(dp8
S'price_target'
p9
NsS'total_gain'
p10
cnumpy.core.multiarray
scalar
p11
(cnumpy
dtype
p12
(S'f8'
p13
I0
I1
tp14
Rp15
(I3
S'<'
p16
NNNI-1
I-1
I0
tp17
bS'\x00\x00\x00\x00\x00\x00\x00\x00'
p18
tp19
Rp20
sS'stop_loss'
p21
NsS'sell_date'
p22
cdatetime
date
p23
(S'\x07\xe1\x0c\n'
p24
tp25
Rp26
sS'buy_price'
p27
g11
(g15
S'\xdf\x15\xc1\xff\xd6+e@'
p28
tp29
Rp30
sS'sell_price'
p31
g11
(g15
S'\xdf\x15\xc1\xff\xd6+e@'
p32
tp33
Rp34
sS'is_sold'
p35
I01
sS'buy_date'
p36
g23
(S'\x07\xe1\x0c\n'
p37
tp38
Rp39
sS'cur_value'
p40
g11
(g15
S'\x16\xd9\xce\xf7?\x8a\xd0@'
p41
tp42
Rp43
sS'shares'
p44
I100
sg1
g11
(g15
S'\x16\xd9\xce\xf7?\x8a\xd0@'
p45
tp46
Rp47
sS'cur_price'
p48
g34
sS'ticker'
p49
S'AAPL'
p50
sS'id'
p51
I1
ssba(iportfolio
Stock
p52
(dp53
g7
(dp54
g9
Nsg10
g11
(g15
S'\x00\x00\x00\x00\x00\x00\x00\x00'
p55
tp56
Rp57
sg21
Nsg22
g23
(S'\x07\xe1\x0c\n'
p58
tp59
Rp60
sg27
g11
(g15
S'\xecl\xc8?3Or@'
p61
tp62
Rp63
sg31
g11
(g15
S'\xecl\xc8?3Or@'
p64
tp65
Rp66
sg35
I01
sg36
g23
(S'\x07\xe1\x0c\n'
p67
tp68
Rp69
sg40
g11
(g15
S'\xc4\x95\xb3w\xe6,\xb9@'
p70
tp71
Rp72
sg44
I22
sg1
g11
(g15
S'\xc4\x95\xb3w\xe6,\xb9@'
p73
tp74
Rp75
sg48
g66
sg49
S'COHR'
p76
sg51
I2
ssba(iportfolio
Stock
p77
(dp78
g7
(dp79
S'price_target'
p80
I200
sS'total_gain'
p81
g11
(g15
S'\x00\x00\x00\x00\x00\x00\x00\x00'
p82
tp83
Rp84
sS'stop_loss'
p85
I178
sS'sell_date'
p86
NsS'buy_price'
p87
g11
(g15
S'\xcc\x9d\x99`\xb8Ng@'
p88
tp89
Rp90
sS'sell_price'
p91
NsS'is_sold'
p92
I00
sS'buy_date'
p93
g23
(S'\x07\xe1\x0c\n'
p94
tp95
Rp96
sS'cur_value'
p97
g11
(g15
S'Y6sH\n{\xa1@'
p98
tp99
Rp100
sS'shares'
p101
I12
sS'start_value'
p102
g11
(g15
S'Y6sH\n{\xa1@'
p103
tp104
Rp105
sS'cur_price'
p106
g11
(g15
S'\xcc\x9d\x99`\xb8Ng@'
p107
tp108
Rp109
sS'ticker'
p110
S'LRCX'
p111
sS'id'
p112
I3
ssba(iportfolio
Stock
p113
(dp114
g7
(dp115
S'price_target'
p116
I179
sS'total_gain'
p117
g11
(g15
S'\x00\x00\x00\x00\x00\x00\x00\x00'
p118
tp119
Rp120
sS'stop_loss'
p121
I140
sS'sell_date'
p122
NsS'buy_price'
p123
g11
(g15
S'\xdf\x15\xc1\xff\xd6+e@'
p124
tp125
Rp126
sS'sell_price'
p127
NsS'is_sold'
p128
I00
sS'buy_date'
p129
g23
(S'\x07\xe1\x0c\n'
p130
tp131
Rp132
sS'cur_value'
p133
g11
(g15
S'\x13~\xa9\x9fG\x1c\x9d@'
p134
tp135
Rp136
sS'shares'
p137
I11
sS'start_value'
p138
g11
(g15
S'\x13~\xa9\x9fG\x1c\x9d@'
p139
tp140
Rp141
sS'cur_price'
p142
g11
(g15
S'\xdf\x15\xc1\xff\xd6+e@'
p143
tp144
Rp145
sS'ticker'
p146
S'AAPL'
p147
sS'id'
p148
I4
ssbasg40
g11
(g15
S'\x00\x00\x00\x00\x00j\xf8@'
p149
tp150
Rp151
sS'cash'
p152
g11
(g15
S'U\xc0=\x8f\xb6i\xf7@'
p153
tp154
Rp155
s.